; Function Attrs: nounwind uwtable
define void @GC_ptr_store_and_dirty(ptr noundef initializes((0, 8)) %0, ptr noundef %1) local_unnamed_addr #1 {
  store ptr %1, ptr %0, align 8
  %.b = load i1, ptr @GC_manual_vdb, align 4
  br i1 %.b, label %3, label %12

3:                                                ; preds = %2
  %4 = ptrtoint ptr %0 to i64
  %5 = lshr i64 %4, 12
  %6 = lshr i64 %4, 18
  %7 = and i64 %6, 4095
  %8 = getelementptr inbounds nuw [4096 x i64], ptr getelementptr inbounds nuw (i8, ptr @GC_arrays, i64 59896), i64 0, i64 %7
  %9 = and i64 %5, 63
  %10 = shl nuw i64 1, %9
  %11 = atomicrmw volatile or ptr %8, i64 %10 monotonic, align 8
  br label %12

12:                                               ; preds = %2, %3
  tail call void asm sideeffect " ", "X,~{memory},~{dirflag},~{fpsr},~{flags}"(ptr %1) #41, !srcloc !83
  ret void
}